; Function Attrs: mustprogress uwtable
define internal void @_ZN2cv12cpu_baseline12_GLOBAL__N_19SqrRowSumIhdEclEPKhPhii(ptr noundef nonnull readonly align 8 captures(none) dereferenceable(16) %0, ptr noundef readonly captures(none) %1, ptr noundef writeonly captures(none) %2, i32 noundef %3, i32 noundef %4) unnamed_addr #0 align 2 personality ptr @__gxx_personality_v0 {
  %6 = alloca %"class.cv::utils::trace::details::Region", align 8
  call void @llvm.lifetime.start.p0(i64 16, ptr nonnull %6) #24
  call void @_ZN2cv5utils5trace7details6RegionC1ERKNS3_21LocationStaticStorageE(ptr noundef nonnull align 8 dereferenceable(12) %6, ptr noundef nonnull align 8 dereferenceable(32) @_ZZN2cv12cpu_baseline12_GLOBAL__N_19SqrRowSumIhdEclEPKhPhiiE26__cv_trace_location_fn1293)
  %7 = getelementptr inbounds nuw i8, ptr %0, i64 8
  %8 = load i32, ptr %7, align 8, !tbaa !23
  %9 = mul nsw i32 %8, %4
  %10 = add nsw i32 %3, -1
  %11 = mul nsw i32 %10, %4
  %12 = icmp sgt i32 %4, 0
  br i1 %12, label %.preheader.lr.ph, label %._crit_edge56

.preheader.lr.ph:                                 ; preds = %5
  %13 = icmp sgt i32 %9, 0
  %14 = icmp sgt i32 %11, 0
  %15 = zext nneg i32 %4 to i64
  br i1 %14, label %.preheader.lr.ph.split.us, label %.preheader.lr.ph.split

.preheader.lr.ph.split.us:                        ; preds = %.preheader.lr.ph
  br i1 %13, label %.preheader.us.us.preheader, label %.preheader.us.preheader

.preheader.us.preheader:                          ; preds = %.preheader.lr.ph.split.us
  %16 = sext i32 %9 to i64
  %17 = zext nneg i32 %11 to i64
  br label %.preheader.us

.preheader.us.us.preheader:                       ; preds = %.preheader.lr.ph.split.us
  %18 = zext nneg i32 %9 to i64
  br label %.preheader.us.us

.preheader.us.us:                                 ; preds = %.preheader.us.us.preheader, %._crit_edge52.us.us
  %.055.us.us = phi ptr [ %40, %._crit_edge52.us.us ], [ %1, %.preheader.us.us.preheader ]
  %.03954.us.us = phi ptr [ %41, %._crit_edge52.us.us ], [ %2, %.preheader.us.us.preheader ]
  %.04353.us.us = phi i32 [ %39, %._crit_edge52.us.us ], [ 0, %.preheader.us.us.preheader ]
  br label %32

19:                                               ; preds = %19, %._crit_edge.us.us
  %indvars.iv79 = phi i64 [ %indvars.iv.next80, %19 ], [ 0, %._crit_edge.us.us ]
  %.149.us.us = phi double [ %28, %19 ], [ %36, %._crit_edge.us.us ]
  %20 = getelementptr inbounds nuw i8, ptr %.055.us.us, i64 %indvars.iv79
  %21 = load i8, ptr %20, align 1, !tbaa !221
  %22 = uitofp i8 %21 to double
  %gep87 = getelementptr inbounds nuw i8, ptr %invariant.gep86, i64 %indvars.iv79
  %23 = load i8, ptr %gep87, align 1, !tbaa !221
  %24 = uitofp i8 %23 to double
  %25 = fneg double %22
  %26 = fmul double %22, %25
  %27 = call double @llvm.fmuladd.f64(double %24, double %24, double %26)
  %28 = fadd double %.149.us.us, %27
  %indvars.iv.next80 = add nuw nsw i64 %indvars.iv79, %15
  %29 = getelementptr inbounds nuw double, ptr %.03954.us.us, i64 %indvars.iv.next80
  store double %28, ptr %29, align 8, !tbaa !327
  %30 = trunc nuw i64 %indvars.iv.next80 to i32
  %31 = icmp sgt i32 %11, %30
  br i1 %31, label %19, label %._crit_edge52.us.us, !llvm.loop !503

32:                                               ; preds = %.preheader.us.us, %32
  %indvars.iv76 = phi i64 [ 0, %.preheader.us.us ], [ %indvars.iv.next77, %32 ]
  %.04047.us.us = phi double [ 0.000000e+00, %.preheader.us.us ], [ %36, %32 ]
  %33 = getelementptr inbounds nuw i8, ptr %.055.us.us, i64 %indvars.iv76
  %34 = load i8, ptr %33, align 1, !tbaa !221
  %35 = uitofp i8 %34 to double
  %36 = call double @llvm.fmuladd.f64(double %35, double %35, double %.04047.us.us)
  %indvars.iv.next77 = add nuw nsw i64 %indvars.iv76, %15
  %37 = trunc nuw i64 %indvars.iv.next77 to i32
  %38 = icmp sgt i32 %9, %37
  br i1 %38, label %32, label %._crit_edge.us.us, !llvm.loop !504

._crit_edge.us.us:                                ; preds = %32
  store double %36, ptr %.03954.us.us, align 8, !tbaa !327
  %invariant.gep86 = getelementptr inbounds nuw i8, ptr %.055.us.us, i64 %18
  br label %19

._crit_edge52.us.us:                              ; preds = %19
  %39 = add nuw nsw i32 %.04353.us.us, 1
  %40 = getelementptr inbounds nuw i8, ptr %.055.us.us, i64 1
  %41 = getelementptr inbounds nuw i8, ptr %.03954.us.us, i64 8
  %exitcond82.not = icmp eq i32 %39, %4
  br i1 %exitcond82.not, label %._crit_edge56, label %.preheader.us.us, !llvm.loop !505

.preheader.us:                                    ; preds = %.preheader.us.preheader, %._crit_edge52.us
  %.055.us = phi ptr [ %55, %._crit_edge52.us ], [ %1, %.preheader.us.preheader ]
  %.03954.us = phi ptr [ %56, %._crit_edge52.us ], [ %2, %.preheader.us.preheader ]
  %.04353.us = phi i32 [ %54, %._crit_edge52.us ], [ 0, %.preheader.us.preheader ]
  store double 0.000000e+00, ptr %.03954.us, align 8, !tbaa !327
  %invariant.gep = getelementptr i8, ptr %.055.us, i64 %16
  br label %42

42:                                               ; preds = %.preheader.us, %42
  %indvars.iv72 = phi i64 [ 0, %.preheader.us ], [ %indvars.iv.next73, %42 ]
  %.149.us = phi double [ 0.000000e+00, %.preheader.us ], [ %51, %42 ]
  %43 = getelementptr inbounds nuw i8, ptr %.055.us, i64 %indvars.iv72
  %44 = load i8, ptr %43, align 1, !tbaa !221
  %45 = uitofp i8 %44 to double
  %gep = getelementptr i8, ptr %invariant.gep, i64 %indvars.iv72
  %46 = load i8, ptr %gep, align 1, !tbaa !221
  %47 = uitofp i8 %46 to double
  %48 = fneg double %45
  %49 = fmul double %45, %48
  %50 = call double @llvm.fmuladd.f64(double %47, double %47, double %49)
  %51 = fadd double %.149.us, %50
  %indvars.iv.next73 = add nuw nsw i64 %indvars.iv72, %15
  %52 = getelementptr inbounds nuw double, ptr %.03954.us, i64 %indvars.iv.next73
  store double %51, ptr %52, align 8, !tbaa !327
  %53 = icmp samesign ult i64 %indvars.iv.next73, %17
  br i1 %53, label %42, label %._crit_edge52.us, !llvm.loop !503

._crit_edge52.us:                                 ; preds = %42
  %54 = add nuw nsw i32 %.04353.us, 1
  %55 = getelementptr inbounds nuw i8, ptr %.055.us, i64 1
  %56 = getelementptr inbounds nuw i8, ptr %.03954.us, i64 8
  %exitcond75.not = icmp eq i32 %54, %4
  br i1 %exitcond75.not, label %._crit_edge56, label %.preheader.us, !llvm.loop !505

.preheader.lr.ph.split:                           ; preds = %.preheader.lr.ph
  br i1 %13, label %.preheader.us57, label %.preheader.preheader

.preheader.preheader:                             ; preds = %.preheader.lr.ph.split
  %57 = shl nuw nsw i64 %15, 3
  call void @llvm.memset.p0.i64(ptr align 8 %2, i8 0, i64 %57, i1 false), !tbaa !327
  br label %._crit_edge56

.preheader.us57:                                  ; preds = %.preheader.lr.ph.split, %._crit_edge.us65
  %.055.us58 = phi ptr [ %66, %._crit_edge.us65 ], [ %1, %.preheader.lr.ph.split ]
  %.03954.us59 = phi ptr [ %67, %._crit_edge.us65 ], [ %2, %.preheader.lr.ph.split ]
  %.04353.us60 = phi i32 [ %65, %._crit_edge.us65 ], [ 0, %.preheader.lr.ph.split ]
  br label %58

58:                                               ; preds = %.preheader.us57, %58
  %indvars.iv = phi i64 [ 0, %.preheader.us57 ], [ %indvars.iv.next, %58 ]
  %.04047.us62 = phi double [ 0.000000e+00, %.preheader.us57 ], [ %62, %58 ]
  %59 = getelementptr inbounds nuw i8, ptr %.055.us58, i64 %indvars.iv
  %60 = load i8, ptr %59, align 1, !tbaa !221
  %61 = uitofp i8 %60 to double
  %62 = call double @llvm.fmuladd.f64(double %61, double %61, double %.04047.us62)
  %indvars.iv.next = add nuw nsw i64 %indvars.iv, %15
  %63 = trunc nuw i64 %indvars.iv.next to i32
  %64 = icmp sgt i32 %9, %63
  br i1 %64, label %58, label %._crit_edge.us65, !llvm.loop !504

._crit_edge.us65:                                 ; preds = %58
  store double %62, ptr %.03954.us59, align 8, !tbaa !327
  %65 = add nuw nsw i32 %.04353.us60, 1
  %66 = getelementptr inbounds nuw i8, ptr %.055.us58, i64 1
  %67 = getelementptr inbounds nuw i8, ptr %.03954.us59, i64 8
  %exitcond.not = icmp eq i32 %65, %4
  br i1 %exitcond.not, label %._crit_edge56, label %.preheader.us57, !llvm.loop !505

._crit_edge56:                                    ; preds = %._crit_edge.us65, %._crit_edge52.us, %._crit_edge52.us.us, %.preheader.preheader, %5
  %68 = getelementptr inbounds nuw i8, ptr %6, i64 8
  %69 = load i32, ptr %68, align 8, !tbaa !67
  %.not.i = icmp eq i32 %69, 0
  br i1 %.not.i, label %_ZN2cv5utils5trace7details6RegionD2Ev.exit, label %70

70:                                               ; preds = %._crit_edge56
  invoke void @_ZN2cv5utils5trace7details6Region7destroyEv(ptr noundef nonnull align 8 dereferenceable(12) %6)
          to label %_ZN2cv5utils5trace7details6RegionD2Ev.exit unwind label %71

71:                                               ; preds = %70
  %72 = landingpad { ptr, i32 }
          catch ptr null
  %73 = extractvalue { ptr, i32 } %72, 0
  call void @__clang_call_terminate(ptr %73) #28
  unreachable

_ZN2cv5utils5trace7details6RegionD2Ev.exit:       ; preds = %._crit_edge56, %70
  call void @llvm.lifetime.end.p0(i64 16, ptr nonnull %6) #24
  ret void
}